; Function Attrs: mustprogress nounwind uwtable
define dso_local noundef zeroext i1 @_ZN4llvm22TypeBasedAAWrapperPass16doInitializationERNS_6ModuleE(ptr nocapture noundef nonnull align 8 dereferenceable(40) %0, ptr nocapture nonnull readnone align 1 %1) unnamed_addr #0 align 2 {
  %3 = getelementptr inbounds nuw i8, ptr %0, i64 32
  %4 = tail call noalias noundef nonnull dereferenceable(1) ptr @_Znwm(i64 noundef 1) #22
  %5 = load ptr, ptr %3, align 8
  store ptr %4, ptr %3, align 8
  %.not.i.i = icmp eq ptr %5, null
  br i1 %.not.i.i, label %_ZNSt10unique_ptrIN4llvm17TypeBasedAAResultESt14default_deleteIS1_EE5resetEPS1_.exit, label %_ZNKSt14default_deleteIN4llvm17TypeBasedAAResultEEclEPS1_.exit.i.i

_ZNKSt14default_deleteIN4llvm17TypeBasedAAResultEEclEPS1_.exit.i.i: ; preds = %2
  tail call void @_ZdlPvm(ptr noundef nonnull %5, i64 noundef 1) #23
  br label %_ZNSt10unique_ptrIN4llvm17TypeBasedAAResultESt14default_deleteIS1_EE5resetEPS1_.exit

_ZNSt10unique_ptrIN4llvm17TypeBasedAAResultESt14default_deleteIS1_EE5resetEPS1_.exit: ; preds = %2, %_ZNKSt14default_deleteIN4llvm17TypeBasedAAResultEEclEPS1_.exit.i.i
  ret i1 false
}